; Function Attrs: mustprogress uwtable
define void @_ZN4YAML10NodeEventsC2ERKNS_4NodeE(ptr noundef nonnull align 8 dereferenceable(72) initializes((0, 48)) %0, ptr noundef nonnull readonly align 8 captures(none) dereferenceable(64) %1) unnamed_addr #0 align 2 personality ptr @__gxx_personality_v0 {
  %3 = getelementptr inbounds nuw i8, ptr %1, i64 40
  %4 = load ptr, ptr %3, align 8, !tbaa !30
  store ptr %4, ptr %0, align 8, !tbaa !30
  %5 = getelementptr inbounds nuw i8, ptr %0, i64 8
  %6 = getelementptr inbounds nuw i8, ptr %1, i64 48
  %7 = load ptr, ptr %6, align 8, !tbaa !33
  store ptr %7, ptr %5, align 8, !tbaa !33
  %.not.i.i.i = icmp eq ptr %7, null
  br i1 %.not.i.i.i, label %_ZNSt10shared_ptrIN4YAML6detail13memory_holderEEC2ERKS3_.exit, label %8

8:                                                ; preds = %2
  %9 = getelementptr inbounds nuw i8, ptr %7, i64 8
  %10 = load i8, ptr @__libc_single_threaded, align 1, !tbaa !34
  %.not.i.i.i.i = icmp eq i8 %10, 0
  br i1 %.not.i.i.i.i, label %14, label %11

11:                                               ; preds = %8
  %12 = load i32, ptr %9, align 4, !tbaa !35
  %13 = add nsw i32 %12, 1
  store i32 %13, ptr %9, align 4, !tbaa !35
  br label %_ZNSt10shared_ptrIN4YAML6detail13memory_holderEEC2ERKS3_.exit

14:                                               ; preds = %8
  %15 = atomicrmw volatile add ptr %9, i32 1 acq_rel, align 4
  br label %_ZNSt10shared_ptrIN4YAML6detail13memory_holderEEC2ERKS3_.exit

_ZNSt10shared_ptrIN4YAML6detail13memory_holderEEC2ERKS3_.exit: ; preds = %2, %11, %14
  %16 = getelementptr inbounds nuw i8, ptr %0, i64 16
  %17 = getelementptr inbounds nuw i8, ptr %1, i64 56
  %18 = load ptr, ptr %17, align 8, !tbaa !37
  store ptr %18, ptr %16, align 8, !tbaa !45
  %19 = getelementptr inbounds nuw i8, ptr %0, i64 24
  %20 = getelementptr inbounds nuw i8, ptr %0, i64 32
  %21 = getelementptr inbounds nuw i8, ptr %0, i64 48
  tail call void @llvm.memset.p0.i64(ptr noundef nonnull align 8 dereferenceable(24) %19, i8 0, i64 24, i1 false)
  store ptr %20, ptr %21, align 8, !tbaa !50
  %22 = getelementptr inbounds nuw i8, ptr %0, i64 56
  store ptr %20, ptr %22, align 8, !tbaa !51
  %23 = getelementptr inbounds nuw i8, ptr %0, i64 64
  store i64 0, ptr %23, align 8, !tbaa !52
  %.not = icmp eq ptr %18, null
  br i1 %.not, label %27, label %24

24:                                               ; preds = %_ZNSt10shared_ptrIN4YAML6detail13memory_holderEEC2ERKS3_.exit
  invoke void @_ZN4YAML10NodeEvents5SetupERKNS_6detail4nodeE(ptr noundef nonnull align 8 dereferenceable(72) %0, ptr noundef nonnull align 8 dereferenceable(72) %18)
          to label %27 unwind label %25

25:                                               ; preds = %24
  %26 = landingpad { ptr, i32 }
          cleanup
  tail call void @_ZNSt3mapIPKN4YAML6detail8node_refEiSt4lessIS4_ESaISt4pairIKS4_iEEED2Ev(ptr noundef nonnull align 8 dereferenceable(48) %19) #15
  tail call void @_ZNSt12__shared_ptrIN4YAML6detail13memory_holderELN9__gnu_cxx12_Lock_policyE2EED2Ev(ptr noundef nonnull align 8 dereferenceable(16) %0) #15
  resume { ptr, i32 } %26

27:                                               ; preds = %24, %_ZNSt10shared_ptrIN4YAML6detail13memory_holderEEC2ERKS3_.exit
  ret void
}